target datalayout = "e-m:e-p270:32:32-p271:32:32-p272:64:64-i64:64-i128:128-f80:128-n8:16:32:64-S128"
target triple = "x86_64-pc-linux-gnu"

%struct._zend_array = type { %struct._zend_refcounted_h, %union.anon.0, i32, %union.anon.1, i32, i32, i32, i32, i64, ptr }
%struct._zend_refcounted_h = type { i32, %union.anon }
%union.anon = type { i32 }
%union.anon.0 = type { i32 }
%union.anon.1 = type { ptr }
%struct._zend_executor_globals = type { %struct._zval_struct, %struct._zval_struct, [32 x ptr], ptr, ptr, %struct._zend_array, %struct._zend_array, ptr, i32, i8, %struct._zval_struct, i32, ptr, ptr, ptr, ptr, ptr, ptr, i64, ptr, ptr, i32, ptr, i32, i64, i32, i32, i32, i8, i8, %struct.zend_atomic_bool_s, %struct.zend_atomic_bool_s, ptr, i64, ptr, ptr, %struct._zend_array, %struct._zend_array, i32, i8, %struct._zval_struct, %struct._zval_struct, %struct._zend_stack, %struct._zend_stack, %struct._zend_stack, ptr, i32, i32, i64, ptr, ptr, ptr, %struct._zend_objects_store, %struct._zend_lazy_objects_store, ptr, ptr, ptr, [3 x %struct._zend_op], ptr, i8, i8, i64, i32, i32, ptr, [16 x %struct._HashTableIterator], ptr, %union._zend_function, %struct._zend_op, %struct._zend_array, i64, %struct.zend_get_gc_buffer, ptr, ptr, ptr, i64, i8, i32, ptr, ptr, i64, %struct._zend_call_stack, i64, i64, %struct._zend_strtod_state, [6 x ptr] }
%struct.zend_atomic_bool_s = type { i8 }
%struct._zval_struct = type { %union._zend_value, %union.anon.3, %union.anon.6 }
%union._zend_value = type { i64 }
%union.anon.3 = type { i32 }
%union.anon.6 = type { i32 }
%struct._zend_stack = type { i32, i32, i32, ptr }
%struct._zend_objects_store = type { ptr, i32, i32, i32 }
%struct._zend_lazy_objects_store = type { %struct._zend_array }
%struct._HashTableIterator = type { ptr, i32, i32 }
%union._zend_function = type { %struct._zend_op_array }
%struct._zend_op_array = type { i8, [3 x i8], i32, ptr, ptr, ptr, i32, i32, ptr, ptr, ptr, ptr, i32, ptr, i32, i32, i32, ptr, ptr, ptr, ptr, ptr, i32, i32, ptr, ptr, ptr, i32, i32, i32, i32, ptr, ptr, [6 x ptr] }
%struct._zend_op = type { ptr, %union._znode_op, %union._znode_op, %union._znode_op, i32, i32, i8, i8, i8, i8 }
%union._znode_op = type { i32 }
%struct.zend_get_gc_buffer = type { ptr, ptr, ptr }
%struct._zend_call_stack = type { ptr, i64 }
%struct._zend_strtod_state = type { [8 x ptr], ptr, ptr }
%struct.php_file_globals = type { i32, i64, i8, i64, ptr, ptr, ptr, ptr, ptr, ptr, ptr, i32, %struct.hostent, ptr, i64 }
%struct.hostent = type { ptr, ptr, i32, i32, ptr }
%struct._php_hash_ops = type { ptr, ptr, ptr, ptr, ptr, ptr, ptr, ptr, i64, i64, i64, i8 }
%struct._zend_string = type { %struct._zend_refcounted_h, i64, i64, [1 x i8] }
%struct._php_hashcontext_object = type { ptr, ptr, i64, ptr, %struct._zend_object }
%struct._zend_object = type { %struct._zend_refcounted_h, i32, i32, ptr, ptr, ptr, [1 x %struct._zval_struct] }
%struct._zend_execute_data = type { ptr, ptr, ptr, ptr, %struct._zval_struct, ptr, ptr, ptr, ptr }

@executor_globals = external global %struct._zend_executor_globals, align 8
@php_hashcontext_ce = dso_local global ptr null, align 8
@.str.6 = private unnamed_addr constant [43 x i8] c"must be a valid, non-finalized HashContext\00", align 1
@.str.9 = private unnamed_addr constant [6 x i8] c"OP|r!\00", align 1
@.str.10 = private unnamed_addr constant [15 x i8] c"Stream-Context\00", align 1
@file_globals = external global %struct.php_file_globals, align 8
@.str.11 = private unnamed_addr constant [3 x i8] c"rb\00", align 1

; Function Attrs: inlinehint nounwind uwtable
define internal ptr @php_hashcontext_from_object(ptr noundef %0) #7 {
  %2 = alloca ptr, align 8
  store ptr %0, ptr %2, align 8, !tbaa !59
  %3 = load ptr, ptr %2, align 8, !tbaa !59
  %4 = getelementptr inbounds %struct._zend_object, ptr %3, i64 1
  %5 = getelementptr inbounds %struct._php_hashcontext_object, ptr %4, i64 -1
  ret ptr %5
}

; Function Attrs: nounwind uwtable
define hidden void @zif_hash_update_file(ptr noundef %0, ptr noundef %1) #0 {
  %3 = alloca ptr, align 8
  %4 = alloca ptr, align 8
  %5 = alloca ptr, align 8
  %6 = alloca ptr, align 8
  %7 = alloca ptr, align 8
  %8 = alloca ptr, align 8
  %9 = alloca ptr, align 8
  %10 = alloca ptr, align 8
  %11 = alloca [1024 x i8], align 16
  %12 = alloca i64, align 8
  %13 = alloca i32, align 4
  store ptr %0, ptr %3, align 8, !tbaa !51
  store ptr %1, ptr %4, align 8, !tbaa !13
  call void @llvm.lifetime.start.p0(i64 8, ptr %5) #16
  call void @llvm.lifetime.start.p0(i64 8, ptr %6) #16
  store ptr null, ptr %6, align 8, !tbaa !13
  call void @llvm.lifetime.start.p0(i64 8, ptr %7) #16
  call void @llvm.lifetime.start.p0(i64 8, ptr %8) #16
  store ptr null, ptr %8, align 8, !tbaa !102
  call void @llvm.lifetime.start.p0(i64 8, ptr %9) #16
  call void @llvm.lifetime.start.p0(i64 8, ptr %10) #16
  call void @llvm.lifetime.start.p0(i64 1024, ptr %11) #16
  call void @llvm.lifetime.start.p0(i64 8, ptr %12) #16
  %14 = load ptr, ptr %3, align 8, !tbaa !51
  %15 = getelementptr inbounds nuw %struct._zend_execute_data, ptr %14, i32 0, i32 4
  %16 = getelementptr inbounds nuw %struct._zval_struct, ptr %15, i32 0, i32 2
  %17 = load i32, ptr %16, align 4, !tbaa !15
  %18 = load ptr, ptr @php_hashcontext_ce, align 8, !tbaa !99
  %19 = call i32 (i32, ptr, ...) @zend_parse_parameters(i32 noundef %17, ptr noundef @.str.9, ptr noundef %5, ptr noundef %18, ptr noundef %10, ptr noundef %6)
  %20 = icmp eq i32 %19, -1
  br i1 %20, label %21, label %27

21:                                               ; preds = %2
  br label %22

22:                                               ; preds = %21
  %23 = load ptr, ptr getelementptr inbounds nuw (%struct._zend_executor_globals, ptr @executor_globals, i32 0, i32 54), align 8, !tbaa !67
  %24 = icmp ne ptr %23, null
  call void @llvm.assume(i1 %24)
  store i32 1, ptr %13, align 4
  br label %107

25:                                               ; No predecessors!
  br label %26

26:                                               ; preds = %25
  br label %27

27:                                               ; preds = %26, %2
  %28 = load ptr, ptr %5, align 8, !tbaa !13
  %29 = getelementptr inbounds nuw %struct._zval_struct, ptr %28, i32 0, i32 0
  %30 = load ptr, ptr %29, align 8, !tbaa !15
  %31 = call ptr @php_hashcontext_from_object(ptr noundef %30)
  store ptr %31, ptr %7, align 8, !tbaa !24
  %32 = load ptr, ptr %7, align 8, !tbaa !24
  %33 = getelementptr inbounds nuw %struct._php_hashcontext_object, ptr %32, i32 0, i32 1
  %34 = load ptr, ptr %33, align 8, !tbaa !26
  %35 = icmp ne ptr %34, null
  br i1 %35, label %42, label %36

36:                                               ; preds = %27
  call void (i32, ptr, ...) @zend_argument_type_error(i32 noundef 1, ptr noundef @.str.6)
  br label %37

37:                                               ; preds = %36
  %38 = load ptr, ptr getelementptr inbounds nuw (%struct._zend_executor_globals, ptr @executor_globals, i32 0, i32 54), align 8, !tbaa !67
  %39 = icmp ne ptr %38, null
  call void @llvm.assume(i1 %39)
  store i32 1, ptr %13, align 4
  br label %107

40:                                               ; No predecessors!
  br label %41

41:                                               ; preds = %40
  br label %42

42:                                               ; preds = %41, %27
  %43 = load ptr, ptr %6, align 8, !tbaa !13
  %44 = icmp ne ptr %43, null
  br i1 %44, label %45, label %49

45:                                               ; preds = %42
  %46 = load ptr, ptr %6, align 8, !tbaa !13
  %47 = call i32 @php_le_stream_context()
  %48 = call ptr @zend_fetch_resource_ex(ptr noundef %46, ptr noundef @.str.10, i32 noundef %47)
  br label %58

49:                                               ; preds = %42
  %50 = load ptr, ptr getelementptr inbounds nuw (%struct.php_file_globals, ptr @file_globals, i32 0, i32 7), align 8, !tbaa !90
  %51 = icmp ne ptr %50, null
  br i1 %51, label %52, label %54

52:                                               ; preds = %49
  %53 = load ptr, ptr getelementptr inbounds nuw (%struct.php_file_globals, ptr @file_globals, i32 0, i32 7), align 8, !tbaa !90
  br label %56

54:                                               ; preds = %49
  %55 = call ptr @php_stream_context_alloc()
  store ptr %55, ptr getelementptr inbounds nuw (%struct.php_file_globals, ptr @file_globals, i32 0, i32 7), align 8, !tbaa !90
  br label %56

56:                                               ; preds = %54, %52
  %57 = phi ptr [ %53, %52 ], [ %55, %54 ]
  br label %58

58:                                               ; preds = %56, %45
  %59 = phi ptr [ %48, %45 ], [ %57, %56 ]
  store ptr %59, ptr %8, align 8, !tbaa !102
  %60 = load ptr, ptr %10, align 8, !tbaa !4
  %61 = getelementptr inbounds nuw %struct._zend_string, ptr %60, i32 0, i32 3
  %62 = getelementptr inbounds [1 x i8], ptr %61, i64 0, i64 0
  %63 = load ptr, ptr %8, align 8, !tbaa !102
  %64 = call ptr @_php_stream_open_wrapper_ex(ptr noundef %62, ptr noundef @.str.11, i32 noundef 8, ptr noundef null, ptr noundef %63)
  store ptr %64, ptr %9, align 8, !tbaa !65
  %65 = load ptr, ptr %9, align 8, !tbaa !65
  %66 = icmp ne ptr %65, null
  br i1 %66, label %76, label %67

67:                                               ; preds = %58
  br label %68

68:                                               ; preds = %67
  br label %69

69:                                               ; preds = %68
  %70 = load ptr, ptr %4, align 8, !tbaa !13
  %71 = getelementptr inbounds nuw %struct._zval_struct, ptr %70, i32 0, i32 1
  store i32 2, ptr %71, align 8, !tbaa !15
  br label %72

72:                                               ; preds = %69
  br label %73

73:                                               ; preds = %72
  store i32 1, ptr %13, align 4
  br label %107

74:                                               ; No predecessors!
  br label %75

75:                                               ; preds = %74
  br label %76

76:                                               ; preds = %75, %58
  br label %77

77:                                               ; preds = %82, %76
  %78 = load ptr, ptr %9, align 8, !tbaa !65
  %79 = getelementptr inbounds [1024 x i8], ptr %11, i64 0, i64 0
  %80 = call i64 @_php_stream_read(ptr noundef %78, ptr noundef %79, i64 noundef 1024)
  store i64 %80, ptr %12, align 8, !tbaa !18
  %81 = icmp sgt i64 %80, 0
  br i1 %81, label %82, label %93

82:                                               ; preds = %77
  %83 = load ptr, ptr %7, align 8, !tbaa !24
  %84 = getelementptr inbounds nuw %struct._php_hashcontext_object, ptr %83, i32 0, i32 0
  %85 = load ptr, ptr %84, align 8, !tbaa !32
  %86 = getelementptr inbounds nuw %struct._php_hash_ops, ptr %85, i32 0, i32 2
  %87 = load ptr, ptr %86, align 8, !tbaa !95
  %88 = load ptr, ptr %7, align 8, !tbaa !24
  %89 = getelementptr inbounds nuw %struct._php_hashcontext_object, ptr %88, i32 0, i32 1
  %90 = load ptr, ptr %89, align 8, !tbaa !26
  %91 = getelementptr inbounds [1024 x i8], ptr %11, i64 0, i64 0
  %92 = load i64, ptr %12, align 8, !tbaa !18
  call void %87(ptr noundef %90, ptr noundef %91, i64 noundef %92)
  br label %77

93:                                               ; preds = %77
  %94 = load ptr, ptr %9, align 8, !tbaa !65
  %95 = call i32 @_php_stream_free(ptr noundef %94, i32 noundef 3)
  br label %96

96:                                               ; preds = %93
  br label %97

97:                                               ; preds = %96
  %98 = load i64, ptr %12, align 8, !tbaa !18
  %99 = icmp sge i64 %98, 0
  %100 = select i1 %99, i32 3, i32 2
  %101 = load ptr, ptr %4, align 8, !tbaa !13
  %102 = getelementptr inbounds nuw %struct._zval_struct, ptr %101, i32 0, i32 1
  store i32 %100, ptr %102, align 8, !tbaa !15
  br label %103

103:                                              ; preds = %97
  br label %104

104:                                              ; preds = %103
  store i32 1, ptr %13, align 4
  br label %107

105:                                              ; No predecessors!
  br label %106

106:                                              ; preds = %105
  store i32 0, ptr %13, align 4
  br label %107

107:                                              ; preds = %106, %104, %73, %37, %22
  call void @llvm.lifetime.end.p0(i64 8, ptr %12) #16
  call void @llvm.lifetime.end.p0(i64 1024, ptr %11) #16
  call void @llvm.lifetime.end.p0(i64 8, ptr %10) #16
  call void @llvm.lifetime.end.p0(i64 8, ptr %9) #16
  call void @llvm.lifetime.end.p0(i64 8, ptr %8) #16
  call void @llvm.lifetime.end.p0(i64 8, ptr %7) #16
  call void @llvm.lifetime.end.p0(i64 8, ptr %6) #16
  call void @llvm.lifetime.end.p0(i64 8, ptr %5) #16
  %108 = load i32, ptr %13, align 4
  switch i32 %108, label %110 [
    i32 0, label %109
    i32 1, label %109
  ]

109:                                              ; preds = %107, %107
  ret void

110:                                              ; preds = %107
  unreachable
}