; Function Attrs: nounwind uwtable
define hidden void @zif_hash_update_file(ptr noundef readonly captures(none) %0, ptr noundef writeonly captures(none) %1) #0 {
  %3 = alloca ptr, align 8
  %4 = alloca ptr, align 8
  %5 = alloca ptr, align 8
  %6 = alloca [1024 x i8], align 16
  call void @llvm.lifetime.start.p0(i64 8, ptr nonnull %3) #16
  call void @llvm.lifetime.start.p0(i64 8, ptr nonnull %4) #16
  store ptr null, ptr %4, align 8, !tbaa !88
  call void @llvm.lifetime.start.p0(i64 8, ptr nonnull %5) #16
  call void @llvm.lifetime.start.p0(i64 1024, ptr nonnull %6) #16
  %7 = getelementptr inbounds nuw i8, ptr %0, i64 44
  %8 = load i32, ptr %7, align 4, !tbaa !4
  %9 = load ptr, ptr @php_hashcontext_ce, align 8, !tbaa !85
  %10 = call i32 (i32, ptr, ...) @zend_parse_parameters(i32 noundef %8, ptr noundef nonnull @.str.9, ptr noundef nonnull %3, ptr noundef %9, ptr noundef nonnull %5, ptr noundef nonnull %4) #16
  %11 = icmp eq i32 %10, -1
  br i1 %11, label %12, label %15

12:                                               ; preds = %2
  %13 = load ptr, ptr getelementptr inbounds nuw (i8, ptr @executor_globals, i64 960), align 8, !tbaa !47
  %14 = icmp ne ptr %13, null
  call void @llvm.assume(i1 %14)
  br label %53

15:                                               ; preds = %2
  %16 = load ptr, ptr %3, align 8, !tbaa !88
  %17 = load ptr, ptr %16, align 8, !tbaa !4
  %18 = getelementptr inbounds i8, ptr %17, i64 -32
  %19 = getelementptr inbounds i8, ptr %17, i64 -24
  %20 = load ptr, ptr %19, align 8, !tbaa !19
  %.not = icmp eq ptr %20, null
  br i1 %.not, label %21, label %24

21:                                               ; preds = %15
  call void (i32, ptr, ...) @zend_argument_type_error(i32 noundef 1, ptr noundef nonnull @.str.6) #16
  %22 = load ptr, ptr getelementptr inbounds nuw (i8, ptr @executor_globals, i64 960), align 8, !tbaa !47
  %23 = icmp ne ptr %22, null
  call void @llvm.assume(i1 %23)
  br label %53

24:                                               ; preds = %15
  %25 = load ptr, ptr %4, align 8, !tbaa !88
  %.not13 = icmp eq ptr %25, null
  br i1 %.not13, label %29, label %26

26:                                               ; preds = %24
  %27 = call i32 @php_le_stream_context() #16
  %28 = call ptr @zend_fetch_resource_ex(ptr noundef nonnull %25, ptr noundef nonnull @.str.10, i32 noundef %27) #16
  br label %33

29:                                               ; preds = %24
  %30 = load ptr, ptr getelementptr inbounds nuw (i8, ptr @file_globals, i64 56), align 8, !tbaa !74
  %.not14 = icmp eq ptr %30, null
  br i1 %.not14, label %31, label %33

31:                                               ; preds = %29
  %32 = call ptr @php_stream_context_alloc() #16
  store ptr %32, ptr getelementptr inbounds nuw (i8, ptr @file_globals, i64 56), align 8, !tbaa !74
  br label %33

33:                                               ; preds = %29, %31, %26
  %34 = phi ptr [ %28, %26 ], [ %32, %31 ], [ %30, %29 ]
  %35 = load ptr, ptr %5, align 8, !tbaa !40
  %36 = getelementptr inbounds nuw i8, ptr %35, i64 24
  %37 = call ptr @_php_stream_open_wrapper_ex(ptr noundef nonnull %36, ptr noundef nonnull @.str.11, i32 noundef 8, ptr noundef null, ptr noundef %34) #16
  %.not15 = icmp eq ptr %37, null
  br i1 %.not15, label %40, label %.preheader

.preheader:                                       ; preds = %33
  %38 = call i64 @_php_stream_read(ptr noundef nonnull %37, ptr noundef nonnull %6, i64 noundef 1024) #16
  %39 = icmp sgt i64 %38, 0
  br i1 %39, label %.lr.ph, label %._crit_edge

40:                                               ; preds = %33
  %41 = getelementptr inbounds nuw i8, ptr %1, i64 8
  store i32 2, ptr %41, align 8, !tbaa !4
  br label %53

.lr.ph:                                           ; preds = %.preheader, %.lr.ph
  %42 = phi i64 [ %47, %.lr.ph ], [ %38, %.preheader ]
  %43 = load ptr, ptr %18, align 8, !tbaa !26
  %44 = getelementptr inbounds nuw i8, ptr %43, i64 16
  %45 = load ptr, ptr %44, align 8, !tbaa !80
  %46 = load ptr, ptr %19, align 8, !tbaa !19
  call void %45(ptr noundef %46, ptr noundef nonnull %6, i64 noundef %42) #16
  %47 = call i64 @_php_stream_read(ptr noundef nonnull %37, ptr noundef nonnull %6, i64 noundef 1024) #16
  %48 = icmp sgt i64 %47, 0
  br i1 %48, label %.lr.ph, label %._crit_edge

._crit_edge:                                      ; preds = %.lr.ph, %.preheader
  %.lcssa = phi i64 [ %38, %.preheader ], [ %47, %.lr.ph ]
  %49 = call i32 @_php_stream_free(ptr noundef nonnull %37, i32 noundef 3) #16
  %50 = icmp eq i64 %.lcssa, 0
  %51 = select i1 %50, i32 3, i32 2
  %52 = getelementptr inbounds nuw i8, ptr %1, i64 8
  store i32 %51, ptr %52, align 8, !tbaa !4
  br label %53

53:                                               ; preds = %._crit_edge, %40, %21, %12
  call void @llvm.lifetime.end.p0(i64 1024, ptr nonnull %6) #16
  call void @llvm.lifetime.end.p0(i64 8, ptr nonnull %5) #16
  call void @llvm.lifetime.end.p0(i64 8, ptr nonnull %4) #16
  call void @llvm.lifetime.end.p0(i64 8, ptr nonnull %3) #16
  ret void
}